; Function Attrs: mustprogress uwtable
define hidden void @_ZN5zxing6qrcode22AlignmentPatternFinderC2ENS_3RefINS_9BitMatrixEEEiiiif(ptr nocapture noundef nonnull align 8 dereferenceable(52) %0, ptr nocapture noundef readonly %1, i32 noundef %2, i32 noundef %3, i32 noundef %4, i32 noundef %5, float noundef %6) unnamed_addr #0 align 2 personality ptr @__gxx_personality_v0 {
  %8 = getelementptr inbounds i8, ptr %0, i64 8
  store i32 0, ptr %8, align 8
  store ptr getelementptr inbounds inrange(-16, 16) (i8, ptr @_ZTVN5zxing6qrcode22AlignmentPatternFinderE, i64 16), ptr %0, align 8
  %9 = getelementptr inbounds i8, ptr %0, i64 16
  store ptr null, ptr %9, align 8
  %10 = load ptr, ptr %1, align 8
  %.not.i.i = icmp eq ptr %10, null
  br i1 %.not.i.i, label %24, label %11

11:                                               ; preds = %7
  %12 = getelementptr inbounds i8, ptr %10, i64 8
  %13 = load i32, ptr %12, align 8
  %14 = add i32 %13, 1
  store i32 %14, ptr %12, align 8
  %.pr.i = load ptr, ptr %9, align 8
  %.not5.i.i = icmp eq ptr %.pr.i, null
  br i1 %.not5.i.i, label %24, label %15

15:                                               ; preds = %11
  %16 = getelementptr inbounds i8, ptr %.pr.i, i64 8
  %17 = load i32, ptr %16, align 8
  %18 = add i32 %17, -1
  store i32 %18, ptr %16, align 8
  %19 = icmp eq i32 %18, 0
  br i1 %19, label %20, label %24

20:                                               ; preds = %15
  store i32 -559026175, ptr %16, align 8
  %21 = load ptr, ptr %.pr.i, align 8
  %22 = getelementptr inbounds i8, ptr %21, i64 8
  %23 = load ptr, ptr %22, align 8
  tail call void %23(ptr noundef nonnull align 8 dereferenceable(12) %.pr.i) #12
  br label %24

24:                                               ; preds = %20, %15, %11, %7
  store ptr %10, ptr %9, align 8
  %25 = invoke noalias noundef nonnull dereferenceable(24) ptr @_Znwm(i64 noundef 24) #13
          to label %26 unwind label %33

26:                                               ; preds = %24
  %27 = getelementptr inbounds i8, ptr %0, i64 24
  tail call void @llvm.memset.p0.i64(ptr noundef nonnull align 8 dereferenceable(24) %25, i8 0, i64 24, i1 false)
  store ptr %25, ptr %27, align 8
  %28 = getelementptr inbounds i8, ptr %0, i64 32
  store i32 %2, ptr %28, align 8
  %29 = getelementptr inbounds i8, ptr %0, i64 36
  store i32 %3, ptr %29, align 4
  %30 = getelementptr inbounds i8, ptr %0, i64 40
  store i32 %4, ptr %30, align 8
  %31 = getelementptr inbounds i8, ptr %0, i64 44
  store i32 %5, ptr %31, align 4
  %32 = getelementptr inbounds i8, ptr %0, i64 48
  store float %6, ptr %32, align 8
  ret void

33:                                               ; preds = %24
  %34 = landingpad { ptr, i32 }
          cleanup
  br i1 %.not.i.i, label %_ZN5zxing3RefINS_9BitMatrixEED2Ev.exit, label %35

35:                                               ; preds = %33
  %36 = getelementptr inbounds i8, ptr %10, i64 8
  %37 = load i32, ptr %36, align 8
  %38 = add i32 %37, -1
  store i32 %38, ptr %36, align 8
  %39 = icmp eq i32 %38, 0
  br i1 %39, label %40, label %_ZN5zxing3RefINS_9BitMatrixEED2Ev.exit

40:                                               ; preds = %35
  store i32 -559026175, ptr %36, align 8
  %41 = load ptr, ptr %10, align 8
  %42 = getelementptr inbounds i8, ptr %41, i64 8
  %43 = load ptr, ptr %42, align 8
  tail call void %43(ptr noundef nonnull align 8 dereferenceable(12) %10) #12
  br label %_ZN5zxing3RefINS_9BitMatrixEED2Ev.exit

_ZN5zxing3RefINS_9BitMatrixEED2Ev.exit:           ; preds = %40, %35, %33
  resume { ptr, i32 } %34
}